; Function Attrs: nounwind uwtable
define internal i32 @der2key_export_object(ptr noundef readonly captures(none) %0, ptr noundef readonly captures(none) %1, i64 noundef %2, ptr noundef %3, ptr noundef %4) #0 {
  %6 = getelementptr inbounds nuw i8, ptr %0, i64 264
  %7 = load ptr, ptr %6, align 8, !tbaa !11
  %8 = getelementptr inbounds nuw i8, ptr %7, i64 8
  %9 = load ptr, ptr %8, align 8, !tbaa !34
  %10 = tail call ptr @ossl_prov_get_keymgmt_export(ptr noundef %9) #7
  %11 = icmp eq i64 %2, 8
  %12 = icmp ne ptr %10, null
  %or.cond = select i1 %11, i1 %12, i1 false
  br i1 %or.cond, label %13, label %19

13:                                               ; preds = %5
  %14 = getelementptr inbounds nuw i8, ptr %0, i64 272
  %15 = load i32, ptr %14, align 8, !tbaa !20
  %16 = icmp eq i32 %15, 0
  %spec.store.select = select i1 %16, i32 135, i32 %15
  %17 = load ptr, ptr %1, align 8, !tbaa !19
  %18 = tail call i32 %10(ptr noundef %17, i32 noundef %spec.store.select, ptr noundef %3, ptr noundef %4) #7
  br label %19

19:                                               ; preds = %5, %13
  %.0 = phi i32 [ %18, %13 ], [ 0, %5 ]
  ret i32 %.0
}